; Function Attrs: mustprogress nofree norecurse nosync nounwind willreturn memory(argmem: readwrite) uwtable
define hidden void @_ZN4cvc58internal11NodeBuilderC2EPNS0_11NodeManagerE(ptr noundef nonnull align 8 dereferenceable(116) %this, ptr noundef %nm) unnamed_addr #4 align 2 {
entry:
  %d_nv = getelementptr inbounds i8, ptr %this, i64 96
  store ptr %this, ptr %d_nv, align 8
  %d_nm = getelementptr inbounds i8, ptr %this, i64 104
  store ptr %nm, ptr %d_nm, align 8
  %d_nvMaxChildren = getelementptr inbounds i8, ptr %this, i64 112
  store i32 10, ptr %d_nvMaxChildren, align 8
  %bf.load = load i64, ptr %this, align 8
  %bf.clear6 = and i64 %bf.load, -1152921504606846976
  store i64 %bf.clear6, ptr %this, align 8
  %d_kind = getelementptr inbounds i8, ptr %this, i64 8
  %bf.load9 = load i16, ptr %d_kind, align 8
  %bf.set11 = or i16 %bf.load9, 1023
  store i16 %bf.set11, ptr %d_kind, align 8
  %d_nchildren = getelementptr inbounds i8, ptr %this, i64 12
  %bf.load13 = load i32, ptr %d_nchildren, align 4
  %bf.clear14 = and i32 %bf.load13, -67108864
  store i32 %bf.clear14, ptr %d_nchildren, align 4
  ret void
}